target datalayout = "e-m:e-p270:32:32-p271:32:32-p272:64:64-i64:64-i128:128-f80:128-n8:16:32:64-S128"
target triple = "x86_64-pc-linux-gnu"

%class.JfrStorage = type { ptr, ptr, ptr, ptr, ptr, ptr }
%class.JfrBuffer = type { ptr, ptr, ptr, ptr, i64, i16, i8, i8, i32 }
%class.Thread = type { %class.ThreadShadow.base, i64, [43 x i64], ptr, ptr, i32, ptr, i64, i64, %class.ThreadLocalAllocBuffer, i64, %class.ThreadHeapSampler, %class.ThreadStatisticalInfo, %class.JfrThreadLocal, ptr, ptr, ptr, ptr, ptr, ptr, i64, i32, i32, ptr, i32, i32, i32, i32, i8, ptr }
%class.ThreadShadow.base = type <{ ptr, ptr, ptr, i32 }>
%class.ThreadLocalAllocBuffer = type <{ ptr, ptr, ptr, ptr, ptr, i64, i64, i64, i64, i32, i32, i32, i32, i64, %class.AdaptiveWeightedAverage, [4 x i8] }>
%class.AdaptiveWeightedAverage = type { float, i32, i32, i8, float }
%class.ThreadHeapSampler = type { i64 }
%class.ThreadStatisticalInfo = type { i64, i64 }
%class.JfrThreadLocal = type <{ ptr, ptr, ptr, ptr, ptr, ptr, ptr, ptr, ptr, ptr, %class.RefCountHandle, i64, i64, i64, i64, i64, i64, i64, i64, i64, i64, i64, i32, i32, i32, i16, i8, i8, i8, i8, i8, [5 x i8] }>
%class.RefCountHandle = type { ptr }

@_ZL9_instance = internal global ptr null, align 8

; Function Attrs: mustprogress nounwind uwtable
define hidden noundef nonnull align 8 dereferenceable(48) ptr @_ZN10JfrStorage8instanceEv() #1 align 2 {
  %1 = load ptr, ptr @_ZL9_instance, align 8
  ret ptr %1
}

; Function Attrs: mustprogress nounwind uwtable
define linkonce_odr hidden void @_ZN14JfrThreadLocal13shelve_bufferEP9JfrBuffer(ptr noundef nonnull align 8 dereferenceable(195) %0, ptr noundef %1) #1 comdat align 2 {
  %3 = alloca ptr, align 8
  %4 = alloca ptr, align 8
  store ptr %0, ptr %3, align 8
  store ptr %1, ptr %4, align 8
  %5 = load ptr, ptr %3, align 8
  %6 = load ptr, ptr %4, align 8
  %7 = getelementptr inbounds %class.JfrThreadLocal, ptr %5, i32 0, i32 3
  store ptr %6, ptr %7, align 8
  ret void
}

; Function Attrs: mustprogress nounwind uwtable
define linkonce_odr hidden noundef ptr @_ZNK14JfrThreadLocal14shelved_bufferEv(ptr noundef nonnull align 8 dereferenceable(195) %0) #1 comdat align 2 {
  %2 = alloca ptr, align 8
  store ptr %0, ptr %2, align 8
  %3 = load ptr, ptr %2, align 8
  %4 = getelementptr inbounds %class.JfrThreadLocal, ptr %3, i32 0, i32 3
  %5 = load ptr, ptr %4, align 8
  ret ptr %5
}

; Function Attrs: mustprogress nounwind uwtable
define linkonce_odr hidden void @_ZN14JfrThreadLocal15set_java_bufferEP9JfrBuffer(ptr noundef nonnull align 8 dereferenceable(195) %0, ptr noundef %1) #1 comdat align 2 {
  %3 = alloca ptr, align 8
  %4 = alloca ptr, align 8
  store ptr %0, ptr %3, align 8
  store ptr %1, ptr %4, align 8
  %5 = load ptr, ptr %3, align 8
  %6 = load ptr, ptr %4, align 8
  %7 = getelementptr inbounds %class.JfrThreadLocal, ptr %5, i32 0, i32 1
  store ptr %6, ptr %7, align 8
  ret void
}

; Function Attrs: mustprogress nounwind uwtable
define linkonce_odr hidden void @_ZN14JfrThreadLocal17set_native_bufferEP9JfrBuffer(ptr noundef nonnull align 8 dereferenceable(195) %0, ptr noundef %1) #1 comdat align 2 {
  %3 = alloca ptr, align 8
  %4 = alloca ptr, align 8
  store ptr %0, ptr %3, align 8
  store ptr %1, ptr %4, align 8
  %5 = load ptr, ptr %3, align 8
  %6 = load ptr, ptr %4, align 8
  %7 = getelementptr inbounds %class.JfrThreadLocal, ptr %5, i32 0, i32 2
  store ptr %6, ptr %7, align 8
  ret void
}

; Function Attrs: mustprogress nounwind uwtable
define hidden noundef nonnull align 8 dereferenceable(49) ptr @_ZN10JfrStorage7controlEv() #1 align 2 {
  %1 = call noundef nonnull align 8 dereferenceable(48) ptr @_ZN10JfrStorage8instanceEv()
  %2 = getelementptr inbounds %class.JfrStorage, ptr %1, i32 0, i32 0
  %3 = load ptr, ptr %2, align 8
  ret ptr %3
}

; Function Attrs: mustprogress nounwind uwtable
define internal noundef ptr @_ZL22restore_shelved_bufferbP6Thread(i1 noundef zeroext %0, ptr noundef %1) #1 {
  %3 = alloca i8, align 1
  %4 = alloca ptr, align 8
  %5 = alloca ptr, align 8
  %6 = alloca ptr, align 8
  %7 = zext i1 %0 to i8
  store i8 %7, ptr %3, align 1
  store ptr %1, ptr %4, align 8
  %8 = load ptr, ptr %4, align 8
  %9 = call noundef ptr @_ZNK6Thread16jfr_thread_localEv(ptr noundef nonnull align 8 dereferenceable(888) %8)
  store ptr %9, ptr %5, align 8
  %10 = load ptr, ptr %5, align 8
  %11 = call noundef ptr @_ZNK14JfrThreadLocal14shelved_bufferEv(ptr noundef nonnull align 8 dereferenceable(195) %10)
  store ptr %11, ptr %6, align 8
  %12 = load ptr, ptr %5, align 8
  call void @_ZN14JfrThreadLocal13shelve_bufferEP9JfrBuffer(ptr noundef nonnull align 8 dereferenceable(195) %12, ptr noundef null)
  %13 = load ptr, ptr %6, align 8
  %14 = load ptr, ptr %5, align 8
  %15 = load i8, ptr %3, align 1
  %16 = trunc i8 %15 to i1
  %17 = call noundef ptr @_ZL28store_buffer_to_thread_localP9JfrBufferP14JfrThreadLocalb(ptr noundef %13, ptr noundef %14, i1 noundef zeroext %16)
  ret ptr %17
}

; Function Attrs: mustprogress nounwind uwtable
define internal noundef ptr @_ZL28store_buffer_to_thread_localP9JfrBufferP14JfrThreadLocalb(ptr noundef %0, ptr noundef %1, i1 noundef zeroext %2) #1 {
  %4 = alloca ptr, align 8
  %5 = alloca ptr, align 8
  %6 = alloca i8, align 1
  store ptr %0, ptr %4, align 8
  store ptr %1, ptr %5, align 8
  %7 = zext i1 %2 to i8
  store i8 %7, ptr %6, align 1
  %8 = load i8, ptr %6, align 1
  %9 = trunc i8 %8 to i1
  br i1 %9, label %10, label %13

10:                                               ; preds = %3
  %11 = load ptr, ptr %5, align 8
  %12 = load ptr, ptr %4, align 8
  call void @_ZN14JfrThreadLocal17set_native_bufferEP9JfrBuffer(ptr noundef nonnull align 8 dereferenceable(195) %11, ptr noundef %12)
  br label %16

13:                                               ; preds = %3
  %14 = load ptr, ptr %5, align 8
  %15 = load ptr, ptr %4, align 8
  call void @_ZN14JfrThreadLocal15set_java_bufferEP9JfrBuffer(ptr noundef nonnull align 8 dereferenceable(195) %14, ptr noundef %15)
  br label %16

16:                                               ; preds = %13, %10
  %17 = load ptr, ptr %4, align 8
  ret ptr %17
}

; Function Attrs: mustprogress nounwind uwtable
define linkonce_odr hidden noundef ptr @_ZNK6Thread16jfr_thread_localEv(ptr noundef nonnull align 8 dereferenceable(888) %0) #1 comdat align 2 {
  %2 = alloca ptr, align 8
  store ptr %0, ptr %2, align 8
  %3 = load ptr, ptr %2, align 8
  %4 = getelementptr inbounds %class.Thread, ptr %3, i32 0, i32 13
  ret ptr %4
}

; Function Attrs: mustprogress nounwind uwtable
define hidden void @_ZN10JfrStorage13release_largeEP9JfrBufferP6Thread(ptr noundef nonnull align 8 dereferenceable(48) %0, ptr noundef %1, ptr noundef %2) #1 align 2 {
  %4 = alloca ptr, align 8
  %5 = alloca ptr, align 8
  %6 = alloca ptr, align 8
  store ptr %0, ptr %4, align 8
  store ptr %1, ptr %5, align 8
  store ptr %2, ptr %6, align 8
  %7 = load ptr, ptr %4, align 8
  %8 = load ptr, ptr %5, align 8
  call void @_ZN9JfrBuffer11clear_leaseEv(ptr noundef nonnull align 8 dereferenceable(48) %8)
  %9 = load ptr, ptr %5, align 8
  %10 = call noundef zeroext i1 @_ZNK9JfrBuffer9transientEv(ptr noundef nonnull align 8 dereferenceable(48) %9)
  br i1 %10, label %11, label %15

11:                                               ; preds = %3
  %12 = load ptr, ptr %5, align 8
  call void @_ZN9JfrBuffer11set_retiredEv(ptr noundef nonnull align 8 dereferenceable(48) %12)
  %13 = load ptr, ptr %5, align 8
  %14 = load ptr, ptr %6, align 8
  call void @_ZN10JfrStorage13register_fullEP9JfrBufferP6Thread(ptr noundef nonnull align 8 dereferenceable(48) %7, ptr noundef %13, ptr noundef %14)
  br label %19

15:                                               ; preds = %3
  %16 = load ptr, ptr %5, align 8
  call void @_ZN9JfrBuffer7releaseEv(ptr noundef nonnull align 8 dereferenceable(48) %16)
  %17 = call noundef nonnull align 8 dereferenceable(49) ptr @_ZN10JfrStorage7controlEv()
  %18 = call noundef i64 @_ZN17JfrStorageControl16decrement_leasedEv(ptr noundef nonnull align 8 dereferenceable(49) %17)
  br label %19

19:                                               ; preds = %15, %11
  ret void
}

; Function Attrs: mustprogress nounwind uwtable
define linkonce_odr hidden noundef ptr @_ZN9JfrBuffer3posEv(ptr noundef nonnull align 8 dereferenceable(48) %0) #1 comdat align 2 {
  %2 = alloca ptr, align 8
  store ptr %0, ptr %2, align 8
  %3 = load ptr, ptr %2, align 8
  %4 = getelementptr inbounds %class.JfrBuffer, ptr %3, i32 0, i32 2
  %5 = load ptr, ptr %4, align 8
  ret ptr %5
}

; Function Attrs: mustprogress nounwind uwtable
define internal noundef ptr @_ZL10large_failP9JfrBufferbR10JfrStorageP6Thread(ptr noundef %0, i1 noundef zeroext %1, ptr noundef nonnull align 8 dereferenceable(48) %2, ptr noundef %3) #1 {
  %5 = alloca ptr, align 8
  %6 = alloca i8, align 1
  %7 = alloca ptr, align 8
  %8 = alloca ptr, align 8
  store ptr %0, ptr %5, align 8
  %9 = zext i1 %1 to i8
  store i8 %9, ptr %6, align 1
  store ptr %2, ptr %7, align 8
  store ptr %3, ptr %8, align 8
  %10 = load ptr, ptr %5, align 8
  %11 = call noundef zeroext i1 @_ZNK9JfrBuffer5leaseEv(ptr noundef nonnull align 8 dereferenceable(48) %10)
  br i1 %11, label %12, label %16

12:                                               ; preds = %4
  %13 = load ptr, ptr %7, align 8
  %14 = load ptr, ptr %5, align 8
  %15 = load ptr, ptr %8, align 8
  call void @_ZN10JfrStorage13release_largeEP9JfrBufferP6Thread(ptr noundef nonnull align 8 dereferenceable(48) %13, ptr noundef %14, ptr noundef %15)
  br label %16

16:                                               ; preds = %12, %4
  %17 = load i8, ptr %6, align 1
  %18 = trunc i8 %17 to i1
  %19 = load ptr, ptr %8, align 8
  %20 = call noundef ptr @_ZL22restore_shelved_bufferbP6Thread(i1 noundef zeroext %18, ptr noundef %19)
  ret ptr %20
}

; Function Attrs: mustprogress nounwind uwtable
define hidden noundef ptr @_ZN10JfrStorage15provision_largeEP9JfrBufferPKhmmbP6Thread(ptr noundef nonnull align 8 dereferenceable(48) %0, ptr noundef %1, ptr noundef %2, i64 noundef %3, i64 noundef %4, i1 noundef zeroext %5, ptr noundef %6) #1 align 2 {
  %8 = alloca ptr, align 8
  %9 = alloca ptr, align 8
  %10 = alloca ptr, align 8
  %11 = alloca ptr, align 8
  %12 = alloca i64, align 8
  %13 = alloca i64, align 8
  %14 = alloca i8, align 1
  %15 = alloca ptr, align 8
  %16 = alloca ptr, align 8
  store ptr %0, ptr %9, align 8
  store ptr %1, ptr %10, align 8
  store ptr %2, ptr %11, align 8
  store i64 %3, ptr %12, align 8
  store i64 %4, ptr %13, align 8
  %17 = zext i1 %5 to i8
  store i8 %17, ptr %14, align 1
  store ptr %6, ptr %15, align 8
  %18 = load ptr, ptr %9, align 8
  %19 = load i64, ptr %13, align 8
  %20 = load ptr, ptr %15, align 8
  %21 = call noundef ptr @_ZN10JfrStorage13acquire_largeEmP6Thread(ptr noundef nonnull align 8 dereferenceable(48) %18, i64 noundef %19, ptr noundef %20)
  store ptr %21, ptr %16, align 8
  %22 = load ptr, ptr %16, align 8
  %23 = icmp eq ptr %22, null
  br i1 %23, label %24, label %30

24:                                               ; preds = %7
  %25 = load ptr, ptr %10, align 8
  %26 = load i8, ptr %14, align 1
  %27 = trunc i8 %26 to i1
  %28 = load ptr, ptr %15, align 8
  %29 = call noundef ptr @_ZL10large_failP9JfrBufferbR10JfrStorageP6Thread(ptr noundef %25, i1 noundef zeroext %27, ptr noundef nonnull align 8 dereferenceable(48) %18, ptr noundef %28)
  store ptr %29, ptr %8, align 8
  br label %47

30:                                               ; preds = %7
  %31 = load ptr, ptr %16, align 8
  %32 = call noundef ptr @_ZN9JfrBuffer3posEv(ptr noundef nonnull align 8 dereferenceable(48) %31)
  %33 = load ptr, ptr %11, align 8
  %34 = load i64, ptr %12, align 8
  call void @llvm.memcpy.p0.p0.i64(ptr align 1 %32, ptr align 1 %33, i64 %34, i1 false)
  %35 = load ptr, ptr %10, align 8
  %36 = call noundef zeroext i1 @_ZNK9JfrBuffer5leaseEv(ptr noundef nonnull align 8 dereferenceable(48) %35)
  br i1 %36, label %37, label %40

37:                                               ; preds = %30
  %38 = load ptr, ptr %10, align 8
  %39 = load ptr, ptr %15, align 8
  call void @_ZN10JfrStorage13release_largeEP9JfrBufferP6Thread(ptr noundef nonnull align 8 dereferenceable(48) %18, ptr noundef %38, ptr noundef %39)
  br label %40

40:                                               ; preds = %37, %30
  %41 = load ptr, ptr %16, align 8
  %42 = load ptr, ptr %15, align 8
  %43 = call noundef ptr @_ZNK6Thread16jfr_thread_localEv(ptr noundef nonnull align 8 dereferenceable(888) %42)
  %44 = load i8, ptr %14, align 1
  %45 = trunc i8 %44 to i1
  %46 = call noundef ptr @_ZL28store_buffer_to_thread_localP9JfrBufferP14JfrThreadLocalb(ptr noundef %41, ptr noundef %43, i1 noundef zeroext %45)
  store ptr %46, ptr %8, align 8
  br label %47

47:                                               ; preds = %40, %24
  %48 = load ptr, ptr %8, align 8
  ret ptr %48
}