; Function Attrs: mustprogress nounwind uwtable
define hidden noundef ptr @_ZN10JfrStorage15provision_largeEP9JfrBufferPKhmmbP6Thread(ptr nocapture noundef nonnull readonly align 8 dereferenceable(48) %0, ptr noundef %1, ptr nocapture noundef readonly %2, i64 noundef %3, i64 noundef %4, i1 noundef zeroext %5, ptr noundef %6) local_unnamed_addr #1 align 2 {
  %8 = tail call noundef ptr @_ZN10JfrStorage13acquire_largeEmP6Thread(ptr nonnull align 8 poison, i64 noundef %4, ptr noundef %6)
  %9 = icmp eq ptr %8, null
  br i1 %9, label %10, label %21

10:                                               ; preds = %7
  %11 = tail call noundef zeroext i1 @_ZNK9JfrBuffer5leaseEv(ptr noundef nonnull align 8 dereferenceable(48) %1) #16
  br i1 %11, label %12, label %_ZL10large_failP9JfrBufferbR10JfrStorageP6Thread.exit

12:                                               ; preds = %10
  tail call void @_ZN9JfrBuffer11clear_leaseEv(ptr noundef nonnull align 8 dereferenceable(48) %1) #16
  %13 = tail call noundef zeroext i1 @_ZNK9JfrBuffer9transientEv(ptr noundef nonnull align 8 dereferenceable(48) %1) #16
  br i1 %13, label %14, label %15

14:                                               ; preds = %12
  tail call void @_ZN9JfrBuffer11set_retiredEv(ptr noundef nonnull align 8 dereferenceable(48) %1) #16
  tail call void @_ZN10JfrStorage13register_fullEP9JfrBufferP6Thread(ptr noundef nonnull readonly align 8 dereferenceable(48) %0, ptr noundef nonnull %1, ptr noundef %6)
  br label %_ZL10large_failP9JfrBufferbR10JfrStorageP6Thread.exit

15:                                               ; preds = %12
  tail call void @_ZN9JfrBuffer7releaseEv(ptr noundef nonnull align 8 dereferenceable(48) %1) #16
  %16 = load ptr, ptr @_ZL9_instance, align 8
  %17 = load ptr, ptr %16, align 8
  %18 = tail call noundef i64 @_ZN17JfrStorageControl16decrement_leasedEv(ptr noundef nonnull align 8 dereferenceable(49) %17) #16
  br label %_ZL10large_failP9JfrBufferbR10JfrStorageP6Thread.exit

_ZL10large_failP9JfrBufferbR10JfrStorageP6Thread.exit: ; preds = %10, %14, %15
  %19 = getelementptr inbounds i8, ptr %6, i64 608
  %20 = load ptr, ptr %19, align 8
  store ptr null, ptr %19, align 8
  br label %_ZN10JfrStorage13release_largeEP9JfrBufferP6Thread.exit

21:                                               ; preds = %7
  %22 = getelementptr inbounds i8, ptr %8, i64 16
  %23 = load ptr, ptr %22, align 8
  tail call void @llvm.memcpy.p0.p0.i64(ptr align 1 %23, ptr align 1 %2, i64 %3, i1 false)
  %24 = tail call noundef zeroext i1 @_ZNK9JfrBuffer5leaseEv(ptr noundef nonnull align 8 dereferenceable(48) %1) #16
  br i1 %24, label %25, label %_ZN10JfrStorage13release_largeEP9JfrBufferP6Thread.exit

25:                                               ; preds = %21
  tail call void @_ZN9JfrBuffer11clear_leaseEv(ptr noundef nonnull align 8 dereferenceable(48) %1) #16
  %26 = tail call noundef zeroext i1 @_ZNK9JfrBuffer9transientEv(ptr noundef nonnull align 8 dereferenceable(48) %1) #16
  br i1 %26, label %27, label %28

27:                                               ; preds = %25
  tail call void @_ZN9JfrBuffer11set_retiredEv(ptr noundef nonnull align 8 dereferenceable(48) %1) #16
  tail call void @_ZN10JfrStorage13register_fullEP9JfrBufferP6Thread(ptr noundef nonnull readonly align 8 dereferenceable(48) %0, ptr noundef nonnull %1, ptr noundef %6)
  br label %_ZN10JfrStorage13release_largeEP9JfrBufferP6Thread.exit

28:                                               ; preds = %25
  tail call void @_ZN9JfrBuffer7releaseEv(ptr noundef nonnull align 8 dereferenceable(48) %1) #16
  %29 = load ptr, ptr @_ZL9_instance, align 8
  %30 = load ptr, ptr %29, align 8
  %31 = tail call noundef i64 @_ZN17JfrStorageControl16decrement_leasedEv(ptr noundef nonnull align 8 dereferenceable(49) %30) #16
  br label %_ZN10JfrStorage13release_largeEP9JfrBufferP6Thread.exit

_ZN10JfrStorage13release_largeEP9JfrBufferP6Thread.exit: ; preds = %21, %27, %28, %_ZL10large_failP9JfrBufferbR10JfrStorageP6Thread.exit
  %.sink = phi ptr [ %20, %_ZL10large_failP9JfrBufferbR10JfrStorageP6Thread.exit ], [ %8, %28 ], [ %8, %27 ], [ %8, %21 ]
  %.sink18 = getelementptr inbounds i8, ptr %6, i64 584
  %..i = select i1 %5, i64 16, i64 8
  %32 = getelementptr inbounds i8, ptr %.sink18, i64 %..i
  store ptr %.sink, ptr %32, align 8
  ret ptr %.sink
}